target datalayout = "e-m:e-p270:32:32-p271:32:32-p272:64:64-i64:64-i128:128-f80:128-n8:16:32:64-S128"
target triple = "x86_64-pc-linux-gnu"

%struct.FFV1Context = type { ptr, ptr, [256 x [2 x i64]], [8 x ptr], i32, i32, i32, i32, i32, i32, i32, i32, i32, i32, i64, i32, %struct.ProgressFrame, %struct.ProgressFrame, ptr, ptr, i32, i32, i32, ptr, i32, i32, [8 x [5 x [256 x i16]]], [8 x i32], [256 x i8], [8 x ptr], i32, i32, i32, i32, i32, i32, i32, i32, i32, i32, i32, i32, i32, i32, i32, i32, i32, i32, i32, ptr, ptr, i8 }
%struct.ProgressFrame = type { ptr, ptr }
%struct.FFV1SliceContext = type { ptr, ptr, i32, i32, i32, i32, i32, i32, i32, i32, i32, i32, i32, ptr, %struct.PutBitContext, %struct.RangeCoder, i32, %union.anon.0, [4 x i32], [4 x ptr], [4 x ptr], [4 x ptr], [4 x i32], [4 x i32], [4 x ptr] }
%struct.PutBitContext = type { i32, i32, ptr, ptr, ptr }
%struct.RangeCoder = type { i32, i32, i32, i32, [256 x i8], [256 x i8], ptr, ptr, ptr, i32 }
%union.anon.0 = type { %struct.anon.1 }
%struct.anon.1 = type { [256 x [2 x i64]], [8 x ptr] }

; Function Attrs: cold nounwind optsize uwtable
define i32 @ff_ffv1_init_slices_state(ptr noundef %0) #0 {
  %2 = alloca i32, align 4
  %3 = alloca ptr, align 8
  %4 = alloca i32, align 4
  %5 = alloca i32, align 4
  %6 = alloca i32, align 4
  store ptr %0, ptr %3, align 8, !tbaa !9
  call void @llvm.lifetime.start.p0(i64 4, ptr %4) #9
  call void @llvm.lifetime.start.p0(i64 4, ptr %5) #9
  store i32 0, ptr %4, align 4, !tbaa !45
  br label %7

7:                                                ; preds = %25, %1
  %8 = load i32, ptr %4, align 4, !tbaa !45
  %9 = load ptr, ptr %3, align 8, !tbaa !9
  %10 = getelementptr inbounds nuw %struct.FFV1Context, ptr %9, i32 0, i32 46
  %11 = load i32, ptr %10, align 8, !tbaa !71
  %12 = icmp slt i32 %8, %11
  br i1 %12, label %13, label %28

13:                                               ; preds = %7
  %14 = load ptr, ptr %3, align 8, !tbaa !9
  %15 = load ptr, ptr %3, align 8, !tbaa !9
  %16 = getelementptr inbounds nuw %struct.FFV1Context, ptr %15, i32 0, i32 49
  %17 = load ptr, ptr %16, align 8, !tbaa !72
  %18 = load i32, ptr %4, align 4, !tbaa !45
  %19 = sext i32 %18 to i64
  %20 = getelementptr inbounds %struct.FFV1SliceContext, ptr %17, i64 %19
  %21 = call i32 @ff_ffv1_init_slice_state(ptr noundef %14, ptr noundef %20) #10
  store i32 %21, ptr %5, align 4, !tbaa !45
  %22 = icmp slt i32 %21, 0
  br i1 %22, label %23, label %24

23:                                               ; preds = %13
  store i32 -12, ptr %2, align 4
  store i32 1, ptr %6, align 4
  br label %29

24:                                               ; preds = %13
  br label %25

25:                                               ; preds = %24
  %26 = load i32, ptr %4, align 4, !tbaa !45
  %27 = add nsw i32 %26, 1
  store i32 %27, ptr %4, align 4, !tbaa !45
  br label %7, !llvm.loop !73

28:                                               ; preds = %7
  store i32 0, ptr %2, align 4
  store i32 1, ptr %6, align 4
  br label %29

29:                                               ; preds = %28, %23
  call void @llvm.lifetime.end.p0(i64 4, ptr %5) #9
  call void @llvm.lifetime.end.p0(i64 4, ptr %4) #9
  %30 = load i32, ptr %2, align 4
  ret i32 %30
}