; Function Attrs: cold nounwind optsize uwtable
define range(i32 -12, 1) i32 @ff_ffv1_init_slices_state(ptr noundef readonly captures(none) %0) local_unnamed_addr #2 {
  %2 = getelementptr inbounds nuw i8, ptr %0, i64 25224
  %3 = getelementptr inbounds nuw i8, ptr %0, i64 25208
  %4 = load i32, ptr %3, align 8, !tbaa !63
  %5 = icmp sgt i32 %4, 0
  br i1 %5, label %.lr.ph, label %._crit_edge

6:                                                ; preds = %.lr.ph
  %indvars.iv.next = add nuw nsw i64 %indvars.iv, 1
  %7 = load i32, ptr %3, align 8, !tbaa !63
  %8 = sext i32 %7 to i64
  %9 = icmp slt i64 %indvars.iv.next, %8
  br i1 %9, label %.lr.ph, label %._crit_edge, !llvm.loop !64

.lr.ph:                                           ; preds = %1, %6
  %indvars.iv = phi i64 [ %indvars.iv.next, %6 ], [ 0, %1 ]
  %10 = load ptr, ptr %2, align 8, !tbaa !65
  %11 = getelementptr inbounds nuw %struct.FFV1SliceContext, ptr %10, i64 %indvars.iv
  %12 = tail call i32 @ff_ffv1_init_slice_state(ptr noundef nonnull %0, ptr noundef %11) #13
  %13 = icmp slt i32 %12, 0
  br i1 %13, label %._crit_edge, label %6

._crit_edge:                                      ; preds = %.lr.ph, %6, %1
  %.0 = phi i32 [ 0, %1 ], [ 0, %6 ], [ -12, %.lr.ph ]
  ret i32 %.0
}